Certificate:
    Data:
        Version: 3 (0x2)
        Serial Number: 2457 (0x999)
        Signature Algorithm: ecdsa-with-SHA256
        Issuer: CN=P-256 Certificate Authority
        Validity
            Not Before: Apr 14 23:06:13 2023 GMT
            Not After : Apr 13 23:06:13 2026 GMT
        Subject: CN=P-256 Client
        Subject Public Key Info:
            Public Key Algorithm: id-ecPublicKey
                Public-Key: (256 bit)
                pub:
                    04:98:d1:55:fa:34:56:41:30:d1:99:f5:e1:5a:b3:
                    01:b0:77:f4:8a:9b:79:3b:43:2c:90:ec:f8:56:43:
                    47:7a:e1:c2:9b:45:cc:a0:95:f9:c6:42:6e:68:ef:
                    c9:c4:cc:9a:c5:d2:ee:b8:c0:47:e5:57:29:a0:72:
                    c4:9e:9f:a0:f4
                ASN1 OID: prime256v1
                NIST CURVE: P-256
        X509v3 extensions:
            X509v3 Basic Constraints: 
                CA:FALSE
            X509v3 Key Usage: 
                Digital Signature
            X509v3 Subject Key Identifier: 
                30:88:E7:07:8B:F4:16:57:8A:0E:79:1D:7E:13:A9:85:A4:67:4B:A3
            X509v3 Authority Key Identifier: 
                D8:C9:ED:97:F3:7A:A0:DC:97:DB:25:E4:45:D4:DE:0E:A7:23:61:71
            X509v3 Extended Key Usage: 
                TLS Web Client Authentication, TLS Web Server Authentication
    Signature Algorithm: ecdsa-with-SHA256
    Signature Value:
        30:44:02:20:00:de:70:c0:55:2d:c0:7b:da:fa:71:e4:48:ca:
        d7:ed:0e:5f:b1:62:58:06:13:6f:c3:b7:68:cc:67:cd:d8:26:
        02:20:3b:ad:a3:f9:76:a1:82:11:c0:79:32:11:29:a7:f5:18:
        66:52:8e:74:81:1f:14:6b:a8:9b:0e:10:29:09:ca:23
-----BEGIN CERTIFICATE-----
MIIBpTCCAUygAwIBAgICCZkwCgYIKoZIzj0EAwIwJjEkMCIGA1UEAwwbUC0yNTYg
Q2VydGlmaWNhdGUgQXV0aG9yaXR5MB4XDTIzMDQxNDIzMDYxM1oXDTI2MDQxMzIz
MDYxM1owFzEVMBMGA1UEAwwMUC0yNTYgQ2xpZW50MFkwEwYHKoZIzj0CAQYIKoZI
zj0DAQcDQgAEmNFV+jRWQTDRmfXhWrMBsHf0ipt5O0MskOz4VkNHeuHCm0XMoJX5
xkJuaO/JxMyaxdLuuMBH5VcpoHLEnp+g9KN5MHcwCQYDVR0TBAIwADALBgNVHQ8E
BAMCB4AwHQYDVR0OBBYEFDCI5weL9BZXig55HX4TqYWkZ0ujMB8GA1UdIwQYMBaA
FNjJ7ZfzeqDcl9sl5EXU3g6nI2FxMB0GA1UdJQQWMBQGCCsGAQUFBwMCBggrBgEF
BQcDATAKBggqhkjOPQQDAgNHADBEAiAA3nDAVS3Ae9r6ceRIytftDl+xYlgGE2/D
t2jMZ83YJgIgO62j+XahghHAeTIRKaf1GGZSjnSBHxRrqJsOECkJyiM=
-----END CERTIFICATE-----
