Certificate:
    Data:
        Version: 3 (0x2)
        Serial Number: 2458 (0x99a)
        Signature Algorithm: ecdsa-with-SHA256
        Issuer: CN=P-256 Certificate Authority
        Validity
            Not Before: Apr 14 23:06:43 2023 GMT
            Not After : Apr 13 23:06:43 2026 GMT
        Subject: CN=P-256 Server
        Subject Public Key Info:
            Public Key Algorithm: id-ecPublicKey
                Public-Key: (256 bit)
                pub:
                    04:8c:0d:2b:13:70:87:37:32:58:1d:35:09:e2:87:
                    46:17:78:ff:d0:c1:c1:95:66:be:bb:a1:f8:a7:5e:
                    f3:3c:92:f6:3a:d1:89:99:7c:56:85:c1:4a:9b:64:
                    08:45:6c:87:73:c2:51:5e:ae:ce:f1:4d:18:30:9d:
                    ca:5d:2f:4a:c8
                ASN1 OID: prime256v1
                NIST CURVE: P-256
        X509v3 extensions:
            X509v3 Basic Constraints: 
                CA:FALSE
            X509v3 Key Usage: 
                Digital Signature
            X509v3 Subject Key Identifier: 
                D5:32:96:F7:9D:3C:7C:F7:59:21:02:29:92:0A:8A:0B:94:89:2D:EC
            X509v3 Authority Key Identifier: 
                D8:C9:ED:97:F3:7A:A0:DC:97:DB:25:E4:45:D4:DE:0E:A7:23:61:71
            X509v3 Extended Key Usage: 
                TLS Web Client Authentication, TLS Web Server Authentication
    Signature Algorithm: ecdsa-with-SHA256
    Signature Value:
        30:46:02:21:00:fa:d3:67:2f:78:95:99:65:c6:b2:ed:ae:7e:
        0d:9b:7c:6a:f2:ae:36:08:45:4f:3d:87:dc:88:89:82:0c:0e:
        6e:02:21:00:bb:c5:d8:d4:b1:b1:6a:e3:a0:df:84:2f:67:fe:
        9d:e3:74:2a:e1:2f:24:cc:0a:7f:16:2e:42:3c:4a:7f:0f:6c
-----BEGIN CERTIFICATE-----
MIIBpzCCAUygAwIBAgICCZowCgYIKoZIzj0EAwIwJjEkMCIGA1UEAwwbUC0yNTYg
Q2VydGlmaWNhdGUgQXV0aG9yaXR5MB4XDTIzMDQxNDIzMDY0M1oXDTI2MDQxMzIz
MDY0M1owFzEVMBMGA1UEAwwMUC0yNTYgU2VydmVyMFkwEwYHKoZIzj0CAQYIKoZI
zj0DAQcDQgAEjA0rE3CHNzJYHTUJ4odGF3j/0MHBlWa+u6H4p17zPJL2OtGJmXxW
hcFKm2QIRWyHc8JRXq7O8U0YMJ3KXS9KyKN5MHcwCQYDVR0TBAIwADALBgNVHQ8E
BAMCB4AwHQYDVR0OBBYEFNUylvedPHz3WSECKZIKiguUiS3sMB8GA1UdIwQYMBaA
FNjJ7ZfzeqDcl9sl5EXU3g6nI2FxMB0GA1UdJQQWMBQGCCsGAQUFBwMCBggrBgEF
BQcDATAKBggqhkjOPQQDAgNJADBGAiEA+tNnL3iVmWXGsu2ufg2bfGryrjYIRU89
h9yIiYIMDm4CIQC7xdjUsbFq46DfhC9n/p3jdCrhLyTMCn8WLkI8Sn8PbA==
-----END CERTIFICATE-----
